; Function Attrs: mustprogress uwtable
define internal fastcc void @_ZN12_GLOBAL__N_120TransformSelectorForC2Elll(ptr noundef nonnull align 8 dereferenceable(88) %0, i64 noundef %1, i64 noundef %2, i64 noundef %3) unnamed_addr #3 align 2 personality ptr @__gxx_personality_v0 {
  %5 = alloca %"class.std::__cxx11::basic_string", align 8
  %6 = alloca %"class.std::allocator.0", align 1
  call void @_ZNSaIcEC1Ev(ptr noundef nonnull align 1 dereferenceable(1) %6) #27
  %7 = invoke noundef ptr @_ZNSt7__cxx1112basic_stringIcSt11char_traitsIcESaIcEE13_M_local_dataEv(ptr noundef nonnull align 8 dereferenceable(32) %5)
          to label %.noexc unwind label %15

.noexc:                                           ; preds = %4
  invoke void @_ZNSt7__cxx1112basic_stringIcSt11char_traitsIcESaIcEE12_Alloc_hiderC1EPcRKS3_(ptr noundef nonnull align 8 dereferenceable(8) %5, ptr noundef %7, ptr noundef nonnull align 1 dereferenceable(1) %6)
          to label %.noexc5 unwind label %15

.noexc5:                                          ; preds = %.noexc
  invoke void @_ZNSt7__cxx1112basic_stringIcSt11char_traitsIcESaIcEE12_M_constructIPKcEEvT_S8_St20forward_iterator_tag(ptr noundef nonnull align 8 dereferenceable(32) %5, ptr noundef nonnull @.str.38, ptr noundef nonnull getelementptr inbounds ([4 x i8], ptr @.str.38, i64 0, i64 3))
          to label %_ZNSt7__cxx1112basic_stringIcSt11char_traitsIcESaIcEEC2IS3_EEPKcRKS3_.exit unwind label %8

8:                                                ; preds = %.noexc5
  %9 = landingpad { ptr, i32 }
          cleanup
  call void @_ZNSaIcED2Ev(ptr noundef nonnull align 1 dereferenceable(1) %5) #27
  br label %.body

_ZNSt7__cxx1112basic_stringIcSt11char_traitsIcESaIcEEC2IS3_EEPKcRKS3_.exit: ; preds = %.noexc5
  store ptr getelementptr inbounds ({ [8 x ptr] }, ptr @_ZTVN12_GLOBAL__N_117TransformSelectorE, i64 0, i32 0, i64 2), ptr %0, align 8
  %10 = getelementptr inbounds i8, ptr %0, i64 8
  call void @_ZNSt7__cxx1112basic_stringIcSt11char_traitsIcESaIcEEC1EOS4_(ptr noundef nonnull align 8 dereferenceable(32) %10, ptr noundef nonnull align 8 dereferenceable(32) %5) #27
  store ptr getelementptr inbounds ({ [8 x ptr] }, ptr @_ZTVN12_GLOBAL__N_124TransformSelectorIndexesE, i64 0, i32 0, i64 2), ptr %0, align 8
  %11 = getelementptr inbounds i8, ptr %0, i64 40
  call void @llvm.memset.p0.i64(ptr noundef nonnull align 8 dereferenceable(24) %11, i8 0, i64 24, i1 false)
  call void @_ZNSt7__cxx1112basic_stringIcSt11char_traitsIcESaIcEED1Ev(ptr noundef nonnull align 8 dereferenceable(32) %5) #27
  call void @_ZNSaIcED1Ev(ptr noundef nonnull align 1 dereferenceable(1) %6) #27
  store ptr getelementptr inbounds ({ [8 x ptr] }, ptr @_ZTVN12_GLOBAL__N_120TransformSelectorForE, i64 0, i32 0, i64 2), ptr %0, align 8
  %12 = getelementptr inbounds i8, ptr %0, i64 64
  store i64 %1, ptr %12, align 8
  %13 = getelementptr inbounds i8, ptr %0, i64 72
  store i64 %2, ptr %13, align 8
  %14 = getelementptr inbounds i8, ptr %0, i64 80
  store i64 %3, ptr %14, align 8
  ret void

15:                                               ; preds = %.noexc, %4
  %16 = landingpad { ptr, i32 }
          cleanup
  br label %.body

.body:                                            ; preds = %8, %15
  %eh.lpad-body = phi { ptr, i32 } [ %16, %15 ], [ %9, %8 ]
  call void @_ZNSaIcED1Ev(ptr noundef nonnull align 1 dereferenceable(1) %6) #27
  resume { ptr, i32 } %eh.lpad-body
}